target datalayout = "e-m:e-p270:32:32-p271:32:32-p272:64:64-i64:64-i128:128-f80:128-n8:16:32:64-S128"
target triple = "x86_64-unknown-linux-gnu"

%struct.PtyChardev = type { %struct.Chardev, ptr, i32, i32, ptr }
%struct.Chardev = type { %struct.Object, %struct.QemuMutex, ptr, ptr, ptr, i32, i32, i8, ptr, ptr, [1 x i64] }
%struct.Object = type { ptr, ptr, ptr, i32, ptr }
%struct.QemuMutex = type { %union.pthread_mutex_t, i8 }
%union.pthread_mutex_t = type { %struct.__pthread_mutex_s }
%struct.__pthread_mutex_s = type { i32, i32, i32, i32, i32, i16, i16, %struct.__pthread_internal_list }
%struct.__pthread_internal_list = type { ptr, ptr }

@.str = private unnamed_addr constant [12 x i8] c"chardev-pty\00", align 1
@.str.3 = private unnamed_addr constant [27 x i8] c"../qemu/chardev/char-pty.c\00", align 1
@__func__.PTY_CHARDEV = private unnamed_addr constant [12 x i8] c"PTY_CHARDEV\00", align 1

; Function Attrs: nounwind sspstrong uwtable
define internal ptr @PTY_CHARDEV(ptr noundef %obj) #0 {
entry:
  %obj.addr = alloca ptr, align 8
  store ptr %obj, ptr %obj.addr, align 8
  %0 = load ptr, ptr %obj.addr, align 8
  %call = call ptr @object_dynamic_cast_assert(ptr noundef %0, ptr noundef @.str, ptr noundef @.str.3, i32 noundef 48, ptr noundef @__func__.PTY_CHARDEV)
  ret ptr %call
}

; Function Attrs: nounwind sspstrong uwtable
define internal ptr @pty_chr_add_watch(ptr noundef %chr, i32 noundef %cond) #0 {
entry:
  %retval = alloca ptr, align 8
  %chr.addr = alloca ptr, align 8
  %cond.addr = alloca i32, align 4
  %s = alloca ptr, align 8
  store ptr %chr, ptr %chr.addr, align 8
  store i32 %cond, ptr %cond.addr, align 4
  %0 = load ptr, ptr %chr.addr, align 8
  %call = call ptr @PTY_CHARDEV(ptr noundef %0)
  store ptr %call, ptr %s, align 8
  %1 = load ptr, ptr %s, align 8
  %connected = getelementptr inbounds %struct.PtyChardev, ptr %1, i32 0, i32 3
  %2 = load i32, ptr %connected, align 4
  %tobool = icmp ne i32 %2, 0
  br i1 %tobool, label %if.end, label %if.then

if.then:                                          ; preds = %entry
  store ptr null, ptr %retval, align 8
  br label %return

if.end:                                           ; preds = %entry
  %3 = load ptr, ptr %s, align 8
  %ioc = getelementptr inbounds %struct.PtyChardev, ptr %3, i32 0, i32 1
  %4 = load ptr, ptr %ioc, align 8
  %5 = load i32, ptr %cond.addr, align 4
  %call1 = call ptr @qio_channel_create_watch(ptr noundef %4, i32 noundef %5)
  store ptr %call1, ptr %retval, align 8
  br label %return

return:                                           ; preds = %if.end, %if.then
  %6 = load ptr, ptr %retval, align 8
  ret ptr %6
}