; Function Attrs: nounwind sspstrong uwtable
define internal ptr @pty_chr_add_watch(ptr noundef %chr, i32 noundef %cond) #0 {
entry:
  %call.i = tail call ptr @object_dynamic_cast_assert(ptr noundef %chr, ptr noundef nonnull @.str, ptr noundef nonnull @.str.3, i32 noundef 48, ptr noundef nonnull @__func__.PTY_CHARDEV) #9
  %connected = getelementptr inbounds nuw i8, ptr %call.i, i64 164
  %0 = load i32, ptr %connected, align 4
  %tobool.not = icmp eq i32 %0, 0
  br i1 %tobool.not, label %return, label %if.end

if.end:                                           ; preds = %entry
  %ioc = getelementptr inbounds nuw i8, ptr %call.i, i64 152
  %1 = load ptr, ptr %ioc, align 8
  %call1 = tail call ptr @qio_channel_create_watch(ptr noundef %1, i32 noundef %cond) #9
  br label %return

return:                                           ; preds = %entry, %if.end
  %retval.0 = phi ptr [ %call1, %if.end ], [ null, %entry ]
  ret ptr %retval.0
}